
tmp/misalign_rv.elf:     format de fichier elf32-littleriscv

Sections :
Idx Name          Taille    VMA       LMA       Off fich  Algn
  0 .bootpad      00000040  80000000  80000000  00001000  2**0
                  ALLOC
  1 .text         0000017c  80000040  80000040  00001040  2**4
                  CONTENTS, ALLOC, LOAD, READONLY, CODE
  2 .riscv.attributes 00000027  00000000  00000000  000011bc  2**0
                  CONTENTS, READONLY

tmp/misalign_rv.elf:     format de fichier elf32-littleriscv


Déassemblage de la section .text :

80000040 <_start>:
80000040:	00000197          	auipc	gp,0x0
80000044:	7c018193          	addi	gp,gp,1984 # 80000800 <__global_pointer$>
80000048:	00100117          	auipc	sp,0x100
8000004c:	fb810113          	addi	sp,sp,-72 # 80100000 <__stack_top>
80000050:	32005073          	csrwi	mcountinhibit,0
80000054:	01c000ef          	jal	80000070 <main>
80000058:	0040006f          	j	8000005c <_exit>

8000005c <_exit>:
8000005c:	c00002b7          	lui	t0,0xc0000
80000060:	00828293          	addi	t0,t0,8 # c0000008 <__stack_top+0x3ff00008>
80000064:	00a2a023          	sw	a0,0(t0)
80000068:	0000006f          	j	80000068 <_exit+0xc>
8000006c:	0000                	.insn	2, 0x0000
	...

80000070 <main>:
80000070:	00000513          	li	a0,0
80000074:	00000297          	auipc	t0,0x0
80000078:	10c28293          	addi	t0,t0,268 # 80000180 <trap_handler>
8000007c:	30529073          	csrw	mtvec,t0
80000080:	800015b7          	lui	a1,0x80001
80000084:	00000413          	li	s0,0
80000088:	00000493          	li	s1,0
8000008c:	00000913          	li	s2,0
80000090:	00158613          	addi	a2,a1,1 # 80001001 <__global_pointer$+0x801>
80000094:	00061683          	lh	a3,0(a2)
80000098:	00100293          	li	t0,1
8000009c:	00541a63          	bne	s0,t0,800000b0 <.fail1>
800000a0:	00400293          	li	t0,4
800000a4:	00549663          	bne	s1,t0,800000b0 <.fail1>
800000a8:	00c91463          	bne	s2,a2,800000b0 <.fail1>
800000ac:	0080006f          	j	800000b4 <.test2>

800000b0 <.fail1>:
800000b0:	00156513          	ori	a0,a0,1

800000b4 <.test2>:
800000b4:	00000413          	li	s0,0
800000b8:	00000493          	li	s1,0
800000bc:	00000913          	li	s2,0
800000c0:	00158613          	addi	a2,a1,1
800000c4:	00062683          	lw	a3,0(a2)
800000c8:	00100293          	li	t0,1
800000cc:	00541a63          	bne	s0,t0,800000e0 <.fail2>
800000d0:	00400293          	li	t0,4
800000d4:	00549663          	bne	s1,t0,800000e0 <.fail2>
800000d8:	00c91463          	bne	s2,a2,800000e0 <.fail2>
800000dc:	0080006f          	j	800000e4 <.test3>

800000e0 <.fail2>:
800000e0:	00256513          	ori	a0,a0,2

800000e4 <.test3>:
800000e4:	00000413          	li	s0,0
800000e8:	00000493          	li	s1,0
800000ec:	00000913          	li	s2,0
800000f0:	00358613          	addi	a2,a1,3
800000f4:	00d61023          	sh	a3,0(a2)
800000f8:	00100293          	li	t0,1
800000fc:	00541a63          	bne	s0,t0,80000110 <.fail3>
80000100:	00600293          	li	t0,6
80000104:	00549663          	bne	s1,t0,80000110 <.fail3>
80000108:	00c91463          	bne	s2,a2,80000110 <.fail3>
8000010c:	0080006f          	j	80000114 <.test4>

80000110 <.fail3>:
80000110:	00456513          	ori	a0,a0,4

80000114 <.test4>:
80000114:	00000413          	li	s0,0
80000118:	00000493          	li	s1,0
8000011c:	00000913          	li	s2,0
80000120:	00258613          	addi	a2,a1,2
80000124:	00d62023          	sw	a3,0(a2)
80000128:	00100293          	li	t0,1
8000012c:	00541a63          	bne	s0,t0,80000140 <.fail4>
80000130:	00600293          	li	t0,6
80000134:	00549663          	bne	s1,t0,80000140 <.fail4>
80000138:	00c91463          	bne	s2,a2,80000140 <.fail4>
8000013c:	0080006f          	j	80000144 <.test5>

80000140 <.fail4>:
80000140:	00856513          	ori	a0,a0,8

80000144 <.test5>:
80000144:	00000413          	li	s0,0
80000148:	0000e2b7          	lui	t0,0xe
8000014c:	ead28293          	addi	t0,t0,-339 # dead <_start-0x7fff2193>
80000150:	0055a023          	sw	t0,0(a1)
80000154:	0005a303          	lw	t1,0(a1)
80000158:	00041c63          	bnez	s0,80000170 <.fail5>
8000015c:	00531a63          	bne	t1,t0,80000170 <.fail5>
80000160:	00559223          	sh	t0,4(a1)
80000164:	00459303          	lh	t1,4(a1)
80000168:	00041463          	bnez	s0,80000170 <.fail5>
8000016c:	0080006f          	j	80000174 <.done>

80000170 <.fail5>:
80000170:	01056513          	ori	a0,a0,16

80000174 <.done>:
80000174:	00008067          	ret
80000178:	00000013          	nop
8000017c:	00000013          	nop

80000180 <trap_handler>:
80000180:	00100413          	li	s0,1
80000184:	342024f3          	csrr	s1,mcause
80000188:	34302973          	csrr	s2,mtval
8000018c:	341029f3          	csrr	s3,mepc
80000190:	0009da03          	lhu	s4,0(s3)
80000194:	003a7a13          	andi	s4,s4,3
80000198:	00300a93          	li	s5,3
8000019c:	015a1663          	bne	s4,s5,800001a8 <.compressed>
800001a0:	00498993          	addi	s3,s3,4
800001a4:	0080006f          	j	800001ac <.handler_done>

800001a8 <.compressed>:
800001a8:	00298993          	addi	s3,s3,2

800001ac <.handler_done>:
800001ac:	34199073          	csrw	mepc,s3
800001b0:	30200073          	mret
800001b4:	00000013          	nop
800001b8:	00000013          	nop
