
tmp/atomics_rv.elf:     format de fichier elf32-littleriscv

Sections :
Idx Name          Taille    VMA       LMA       Off fich  Algn
  0 .bootpad      00000040  80000000  80000000  00001000  2**0
                  ALLOC
  1 .text         000001f0  80000040  80000040  00001040  2**2
                  CONTENTS, ALLOC, LOAD, READONLY, CODE
  2 .riscv.attributes 0000003f  00000000  00000000  00001230  2**0
                  CONTENTS, READONLY

tmp/atomics_rv.elf:     format de fichier elf32-littleriscv


Déassemblage de la section .text :

80000040 <_start>:
80000040:	00000197          	auipc	gp,0x0
80000044:	7c018193          	addi	gp,gp,1984 # 80000800 <__global_pointer$>
80000048:	00100117          	auipc	sp,0x100
8000004c:	fb810113          	addi	sp,sp,-72 # 80100000 <__stack_top>
80000050:	32005073          	csrwi	mcountinhibit,0
80000054:	018000ef          	jal	8000006c <main>
80000058:	0040006f          	j	8000005c <_exit>

8000005c <_exit>:
8000005c:	c00002b7          	lui	t0,0xc0000
80000060:	00828293          	addi	t0,t0,8 # c0000008 <__stack_top+0x3ff00008>
80000064:	00a2a023          	sw	a0,0(t0)
80000068:	0000006f          	j	80000068 <_exit+0xc>

8000006c <main>:
8000006c:	00000513          	li	a0,0
80000070:	800015b7          	lui	a1,0x80001
80000074:	04200613          	li	a2,66
80000078:	00c5a023          	sw	a2,0(a1) # 80001000 <__global_pointer$+0x800>
8000007c:	1005a6af          	lr.w	a3,(a1)
80000080:	09900713          	li	a4,153
80000084:	18e5a7af          	sc.w	a5,a4,(a1)
80000088:	0005a803          	lw	a6,0(a1)
8000008c:	09900293          	li	t0,153
80000090:	00c69863          	bne	a3,a2,800000a0 <.fail1>
80000094:	00079663          	bnez	a5,800000a0 <.fail1>
80000098:	00581463          	bne	a6,t0,800000a0 <.fail1>
8000009c:	0080006f          	j	800000a4 <.test2>

800000a0 <.fail1>:
800000a0:	00156513          	ori	a0,a0,1

800000a4 <.test2>:
800000a4:	0aa00613          	li	a2,170
800000a8:	00c5a023          	sw	a2,0(a1)
800000ac:	0bb00713          	li	a4,187
800000b0:	18e5a7af          	sc.w	a5,a4,(a1)
800000b4:	0005a803          	lw	a6,0(a1)
800000b8:	00078663          	beqz	a5,800000c4 <.fail2>
800000bc:	00c81463          	bne	a6,a2,800000c4 <.fail2>
800000c0:	0080006f          	j	800000c8 <.test3>

800000c4 <.fail2>:
800000c4:	00256513          	ori	a0,a0,2

800000c8 <.test3>:
800000c8:	01000613          	li	a2,16
800000cc:	00c5a023          	sw	a2,0(a1)
800000d0:	02000713          	li	a4,32
800000d4:	08e5a7af          	amoswap.w	a5,a4,(a1)
800000d8:	0005a803          	lw	a6,0(a1)
800000dc:	02000293          	li	t0,32
800000e0:	00c79663          	bne	a5,a2,800000ec <.fail3>
800000e4:	00581463          	bne	a6,t0,800000ec <.fail3>
800000e8:	0080006f          	j	800000f0 <.test4>

800000ec <.fail3>:
800000ec:	00456513          	ori	a0,a0,4

800000f0 <.test4>:
800000f0:	06400613          	li	a2,100
800000f4:	00c5a023          	sw	a2,0(a1)
800000f8:	01700713          	li	a4,23
800000fc:	00e5a7af          	amoadd.w	a5,a4,(a1)
80000100:	0005a803          	lw	a6,0(a1)
80000104:	07b00293          	li	t0,123
80000108:	00c79663          	bne	a5,a2,80000114 <.fail4>
8000010c:	00581463          	bne	a6,t0,80000114 <.fail4>
80000110:	0080006f          	j	80000118 <.test5>

80000114 <.fail4>:
80000114:	00856513          	ori	a0,a0,8

80000118 <.test5>:
80000118:	0ff00613          	li	a2,255
8000011c:	00c5a023          	sw	a2,0(a1)
80000120:	00f00713          	li	a4,15
80000124:	20e5a7af          	amoxor.w	a5,a4,(a1)
80000128:	0005a803          	lw	a6,0(a1)
8000012c:	0f000293          	li	t0,240
80000130:	00c79663          	bne	a5,a2,8000013c <.fail5>
80000134:	00581463          	bne	a6,t0,8000013c <.fail5>
80000138:	0080006f          	j	80000140 <.test6>

8000013c <.fail5>:
8000013c:	01056513          	ori	a0,a0,16

80000140 <.test6>:
80000140:	0ff00613          	li	a2,255
80000144:	00c5a023          	sw	a2,0(a1)
80000148:	00f00713          	li	a4,15
8000014c:	60e5a7af          	amoand.w	a5,a4,(a1)
80000150:	0005a803          	lw	a6,0(a1)
80000154:	00f00293          	li	t0,15
80000158:	00c79663          	bne	a5,a2,80000164 <.fail6>
8000015c:	00581463          	bne	a6,t0,80000164 <.fail6>
80000160:	0080006f          	j	80000168 <.test7>

80000164 <.fail6>:
80000164:	02056513          	ori	a0,a0,32

80000168 <.test7>:
80000168:	0f000613          	li	a2,240
8000016c:	00c5a023          	sw	a2,0(a1)
80000170:	00f00713          	li	a4,15
80000174:	40e5a7af          	amoor.w	a5,a4,(a1)
80000178:	0005a803          	lw	a6,0(a1)
8000017c:	0ff00293          	li	t0,255
80000180:	00c79663          	bne	a5,a2,8000018c <.fail7>
80000184:	00581463          	bne	a6,t0,8000018c <.fail7>
80000188:	0080006f          	j	80000190 <.test8>

8000018c <.fail7>:
8000018c:	04056513          	ori	a0,a0,64

80000190 <.test8>:
80000190:	00500613          	li	a2,5
80000194:	00c5a023          	sw	a2,0(a1)
80000198:	ffd00713          	li	a4,-3
8000019c:	80e5a7af          	amomin.w	a5,a4,(a1)
800001a0:	0005a803          	lw	a6,0(a1)
800001a4:	ffd00293          	li	t0,-3
800001a8:	00c79663          	bne	a5,a2,800001b4 <.fail8>
800001ac:	00581463          	bne	a6,t0,800001b4 <.fail8>
800001b0:	0080006f          	j	800001b8 <.test9>

800001b4 <.fail8>:
800001b4:	08056513          	ori	a0,a0,128

800001b8 <.test9>:
800001b8:	ff600613          	li	a2,-10
800001bc:	00c5a023          	sw	a2,0(a1)
800001c0:	00700713          	li	a4,7
800001c4:	a0e5a7af          	amomax.w	a5,a4,(a1)
800001c8:	0005a803          	lw	a6,0(a1)
800001cc:	00700293          	li	t0,7
800001d0:	00c79663          	bne	a5,a2,800001dc <.fail9>
800001d4:	00581463          	bne	a6,t0,800001dc <.fail9>
800001d8:	0080006f          	j	800001e0 <.test10>

800001dc <.fail9>:
800001dc:	10056513          	ori	a0,a0,256

800001e0 <.test10>:
800001e0:	00300613          	li	a2,3
800001e4:	00c5a023          	sw	a2,0(a1)
800001e8:	fff00713          	li	a4,-1
800001ec:	c0e5a7af          	amominu.w	a5,a4,(a1)
800001f0:	0005a803          	lw	a6,0(a1)
800001f4:	00c79663          	bne	a5,a2,80000200 <.fail10>
800001f8:	00c81463          	bne	a6,a2,80000200 <.fail10>
800001fc:	0080006f          	j	80000204 <.test11>

80000200 <.fail10>:
80000200:	20056513          	ori	a0,a0,512

80000204 <.test11>:
80000204:	00300613          	li	a2,3
80000208:	00c5a023          	sw	a2,0(a1)
8000020c:	fff00713          	li	a4,-1
80000210:	e0e5a7af          	amomaxu.w	a5,a4,(a1)
80000214:	0005a803          	lw	a6,0(a1)
80000218:	fff00293          	li	t0,-1
8000021c:	00c79663          	bne	a5,a2,80000228 <.fail11>
80000220:	00581463          	bne	a6,t0,80000228 <.fail11>
80000224:	0080006f          	j	8000022c <.done>

80000228 <.fail11>:
80000228:	40056513          	ori	a0,a0,1024

8000022c <.done>:
8000022c:	00008067          	ret
